; Function Attrs: nounwind uwtable
define ptr @l_Lean_ShareCommon_PShareCommonM_run___rarg(ptr noundef %0) #0 {
  %2 = load ptr, ptr @l_Lean_ShareCommon_PShareCommonT_run___rarg___closed__1, align 8, !tbaa !11
  %3 = tail call ptr @lean_apply_1(ptr noundef %0, ptr noundef %2) #4
  %4 = getelementptr inbounds nuw i8, ptr %3, i64 8
  %5 = load ptr, ptr %4, align 8, !tbaa !11
  %6 = ptrtoint ptr %5 to i64
  %7 = and i64 %6, 1
  %.not = icmp eq i64 %7, 0
  br i1 %.not, label %8, label %lean_inc.exit

8:                                                ; preds = %1
  %.val.i = load i32, ptr %5, align 4, !tbaa !5
  %9 = icmp sgt i32 %.val.i, 0
  br i1 %9, label %10, label %12, !prof !10

10:                                               ; preds = %8
  %11 = add nuw i32 %.val.i, 1
  store i32 %11, ptr %5, align 4, !tbaa !5
  br label %lean_inc.exit

12:                                               ; preds = %8
  %.not.i6 = icmp eq i32 %.val.i, 0
  br i1 %.not.i6, label %lean_inc.exit, label %13

13:                                               ; preds = %12
  tail call void @lean_inc_ref_cold(ptr noundef nonnull %5) #4
  br label %lean_inc.exit

lean_inc.exit:                                    ; preds = %13, %12, %10, %1
  %14 = ptrtoint ptr %3 to i64
  %15 = and i64 %14, 1
  %.not7 = icmp eq i64 %15, 0
  br i1 %.not7, label %16, label %lean_dec.exit

16:                                               ; preds = %lean_inc.exit
  %17 = load i32, ptr %3, align 4, !tbaa !5
  %18 = icmp sgt i32 %17, 1
  br i1 %18, label %19, label %21, !prof !10

19:                                               ; preds = %16
  %20 = add nsw i32 %17, -1
  store i32 %20, ptr %3, align 4, !tbaa !5
  br label %lean_dec.exit

21:                                               ; preds = %16
  %.not.i = icmp eq i32 %17, 0
  br i1 %.not.i, label %lean_dec.exit, label %22

22:                                               ; preds = %21
  tail call void @lean_dec_ref_cold(ptr noundef nonnull %3) #4
  br label %lean_dec.exit

lean_dec.exit:                                    ; preds = %22, %21, %19, %lean_inc.exit
  ret ptr %5
}